target datalayout = "e-m:e-p270:32:32-p271:32:32-p272:64:64-i64:64-i128:128-f80:128-n8:16:32:64-S128"
target triple = "x86_64-pc-linux-gnu"

%"class.std::shared_ptr" = type { %"class.std::__shared_ptr" }
%"class.std::__shared_ptr" = type { ptr, %"class.std::__shared_count" }
%"class.std::__shared_count" = type { ptr }

; Function Attrs: mustprogress uwtable
define void @_ZN32pxrInternal_v0_24__pxrReserved__19Ts_UntypedEvalCache3NewERKNS_10TsKeyFrameES3_(ptr dead_on_unwind noalias writable sret(%"class.std::shared_ptr") align 8 %0, ptr noundef nonnull align 1 %1, ptr noundef nonnull align 1 %2) #0 align 2 {
  %4 = alloca ptr, align 8
  %5 = alloca ptr, align 8
  %6 = alloca ptr, align 8
  store ptr %0, ptr %4, align 8
  store ptr %1, ptr %5, align 8
  store ptr %2, ptr %6, align 8
  %7 = load ptr, ptr %5, align 8
  %8 = call noundef ptr @_ZN32pxrInternal_v0_24__pxrReserved__18Ts_GetKeyFrameDataERKNS_10TsKeyFrameE(ptr noundef nonnull align 1 %7)
  %9 = load ptr, ptr %6, align 8
  %10 = call noundef ptr @_ZN32pxrInternal_v0_24__pxrReserved__18Ts_GetKeyFrameDataERKNS_10TsKeyFrameE(ptr noundef nonnull align 1 %9)
  %11 = load ptr, ptr %8, align 8
  %12 = getelementptr inbounds ptr, ptr %11, i64 3
  %13 = load ptr, ptr %12, align 8
  call void %13(ptr dead_on_unwind writable sret(%"class.std::shared_ptr") align 8 %0, ptr noundef nonnull align 8 dereferenceable(16) %8, ptr noundef %10)
  ret void
}