; Function Attrs: mustprogress uwtable
define void @_ZN32pxrInternal_v0_24__pxrReserved__19Ts_UntypedEvalCache3NewERKNS_10TsKeyFrameES3_(ptr dead_on_unwind noalias writable sret(%"class.std::shared_ptr") align 8 %0, ptr noundef nonnull align 1 %1, ptr noundef nonnull align 1 %2) local_unnamed_addr #0 align 2 {
  %4 = tail call noundef ptr @_ZN32pxrInternal_v0_24__pxrReserved__18Ts_GetKeyFrameDataERKNS_10TsKeyFrameE(ptr noundef nonnull align 1 %1)
  %5 = tail call noundef ptr @_ZN32pxrInternal_v0_24__pxrReserved__18Ts_GetKeyFrameDataERKNS_10TsKeyFrameE(ptr noundef nonnull align 1 %2)
  %6 = load ptr, ptr %4, align 8
  %7 = getelementptr inbounds nuw i8, ptr %6, i64 24
  %8 = load ptr, ptr %7, align 8
  tail call void %8(ptr dead_on_unwind writable sret(%"class.std::shared_ptr") align 8 %0, ptr noundef nonnull align 8 dereferenceable(16) %4, ptr noundef %5)
  ret void
}